; Function Attrs: mustprogress uwtable
define dso_local void @_ZNK10cmMakefile14RecordPoliciesERN10cmPolicies9PolicyMapE(ptr noundef nonnull align 8 dereferenceable(3520) %0, ptr noundef nonnull align 8 dereferenceable(64) %1) local_unnamed_addr #4 align 2 {
  %3 = getelementptr inbounds i8, ptr %0, i64 720
  br label %4

4:                                                ; preds = %2, %4
  %.05 = phi i32 [ 0, %2 ], [ %6, %4 ]
  %5 = tail call noundef i32 @_ZNK15cmStateSnapshot9GetPolicyEN10cmPolicies8PolicyIDEb(ptr noundef nonnull align 8 dereferenceable(24) %3, i32 noundef %.05, i1 noundef zeroext false)
  tail call void @_ZN10cmPolicies9PolicyMap3SetENS_8PolicyIDENS_12PolicyStatusE(ptr noundef nonnull align 8 dereferenceable(64) %1, i32 noundef %.05, i32 noundef %5)
  %6 = add nuw nsw i32 %.05, 1
  %.not = icmp eq i32 %6, 163
  br i1 %.not, label %7, label %4, !llvm.loop !679

7:                                                ; preds = %4
  ret void
}